Certificate:
    Data:
        Version: 3 (0x2)
        Serial Number: 1 (0x1)
        Signature Algorithm: sha256WithRSAEncryption
        Issuer: C=US, ST=Maryland, L=Baltimore, O=Test CA, Limited, OU=Server Research Department, CN=localhost/emailAddress=test@example.com
        Validity
            Not Before: Feb 11 19:59:59 2019 GMT
            Not After : Feb  8 19:59:59 2029 GMT
        Subject: C=US, ST=MD, L=Baltimore, O=Test Server, Limited, CN=localhost
        Subject Public Key Info:
            Public Key Algorithm: rsaEncryption
            RSA Public Key: (2048 bit)
                Modulus (2048 bit):
                    00:af:ee:be:23:82:44:0b:31:48:f3:13:90:50:7d:
                    7d:11:9d:ab:a7:f2:e8:26:73:28:03:24:51:ab:ff:
                    9c:db:5b:2a:3c:f2:cc:5c:20:29:a0:ff:fc:90:53:
                    11:60:83:34:1f:8b:46:51:3f:c0:30:2c:d4:d3:cc:
                    06:ff:9f:5e:81:2c:4b:46:16:21:ae:f5:6e:10:6e:
                    de:e3:3b:a1:42:0c:8d:55:28:c7:1a:11:2d:a4:4d:
                    20:9b:5c:a1:1e:0a:66:04:16:39:7c:f1:a4:ac:21:
                    f8:76:17:91:35:13:2b:34:39:6d:6e:85:a7:6b:b2:
                    81:fe:30:2b:d7:ec:27:86:43:43:e6:33:e5:a6:66:
                    62:e9:9e:b8:b6:88:7b:65:b2:9d:6f:48:05:86:48:
                    7a:d4:00:4f:3b:e8:e3:04:bf:cd:50:13:f5:ca:c2:
                    04:c9:9f:c3:ff:23:6b:f8:77:da:7b:fd:b8:99:6a:
                    b0:3a:87:ed:0d:1e:ff:be:49:f4:89:dd:34:3c:96:
                    5e:7f:ac:cc:d3:2a:bd:cc:c5:93:76:08:d4:7f:0c:
                    66:bc:7b:f4:ed:6e:c2:6f:d4:cd:ef:84:f5:d6:94:
                    0d:93:b3:dc:61:e9:74:50:11:af:7e:14:1a:a7:18:
                    3e:e8:64:6a:c3:57:3f:da:ee:46:12:17:27:ac:6d:
                    26:eb
                Exponent: 65537 (0x10001)
        X509v3 extensions:
            X509v3 Subject Key Identifier: 
                8D:40:04:0C:E8:BE:47:6D:B3:A1:04:10:B1:7C:79:61:DB:BC:7E:D8
            X509v3 Authority Key Identifier: 
                keyid:FA:7C:EF:E7:A7:1A:04:99:E8:AB:F8:6A:B9:4F:A6:3E:B1:F2:B4:CA

            X509v3 Basic Constraints: 
                CA:FALSE
            X509v3 Key Usage: 
                Digital Signature, Key Encipherment
            X509v3 Subject Alternative Name: 
                DNS:example.com, DNS:www.example.com, DNS:mail.example.com, DNS:ftp.example.com, IP Address:127.0.0.1, IP Address:0:0:0:0:0:0:0:1
            Netscape Comment: 
                OpenSSL Generated Certificate
    Signature Algorithm: sha256WithRSAEncryption
        8b:0b:f3:02:fa:90:d9:ca:79:bb:eb:96:3d:2a:1d:40:d9:42:
        7c:30:60:fc:49:7a:9d:bb:8f:1f:02:d5:0e:34:0c:62:ff:35:
        e4:74:9e:d6:e1:a1:5b:35:07:06:31:57:03:23:a9:81:2b:b0:
        0f:46:10:8c:79:87:c5:77:29:36:34:21:91:c5:9b:70:42:b0:
        b6:d7:45:ba:f1:97:e9:da:58:c0:7e:3c:52:a4:4f:75:50:23:
        22:79:91:fb:d3:f8:c9:6d:20:98:23:73:ba:55:d4:59:b6:6a:
        26:33:0e:e6:9b:b3:f3:16:25:91:54:61:15:b4:d4:a2:96:51:
        19:76:59:96:b4:ad:21:09:5b:94:02:bc:d8:23:c6:74:27:fb:
        91:7c:45:33:79:52:e2:cd:3a:c4:63:94:00:16:11:b1:45:7d:
        38:a0:37:e3:c0:9e:fd:51:5c:fb:12:08:26:5b:c4:ad:b3:ca:
        de:df:04:73:52:62:d3:c4:bb:9a:65:08:dd:92:aa:fc:70:0b:
        ee:e4:82:d2:28:11:71:23:d2:60:4a:9e:a4:18:85:b8:ed:96:
        e8:34:4c:d0:20:85:4f:4e:96:51:4c:f0:9a:d0:19:59:ec:9c:
        5e:b0:d6:16:2d:ac:bb:b6:81:0f:1e:84:50:1f:7a:89:9a:8f:
        d6:e9:3a:7f:0f:79:9b:ed:52:66:56:5a:5d:4f:14:8a:f8:64:
        55:27:26:bf:48:63:be:a9:7e:78:bc:89:7a:1e:5f:44:76:a2:
        97:c0:3e:2b:ea:f3:6c:b8:c6:b6:c8:be:95:ec:cd:19:28:35:
        23:8a:1b:cf:76:85:62:a1:f8:32:10:e0:c4:74:25:3c:b4:4f:
        3f:0e:9b:c3:8d:5f:e1:cc:ae:de:aa:be:58:f4:47:7b:2a:82:
        21:db:8d:1b:21:76:14:86:f5:9f:29:3d:b0:5b:07:1d:a0:58:
        fa:01:29:f6:4e:d9:48:00:12:ab:ed:dc:c1:d6:39:b6:e0:ab:
        37:3c:0e:03:8d:8a:16:2a:06:3c:8a:b8:c2:b6:d9:08:e6:ea:
        71:61:67:c4:9e:e2:7a:82:09:27:89:07:5b:02:60:0a:70:38:
        f4:d2:ea:63:4a:a9:be:c8:76:d2:04:c8:6e:99:da:d4:00:53:
        92:10:8f:55:54:d4:d5:ed:c0:77:dc:4e:08:0d:7b:1b:db:35:
        7d:47:ab:91:69:b9:c0:69:cb:d1:f2:13:07:28:3d:77:9f:36:
        d4:fc:9e:9b:aa:5a:59:27:a9:e2:ff:a2:6b:d4:0e:3c:ae:e2:
        35:2c:af:8e:bd:f4:88:5d:46:4f:af:e5:b2:9e:ff:32:fc:d2:
        b4:7d:2e:7b:dc:d6:33:2d
-----BEGIN CERTIFICATE-----
MIIFdDCCA1ygAwIBAgIBATANBgkqhkiG9w0BAQsFADCBqTELMAkGA1UEBhMCVVMx
ETAPBgNVBAgMCE1hcnlsYW5kMRIwEAYDVQQHDAlCYWx0aW1vcmUxGTAXBgNVBAoM
EFRlc3QgQ0EsIExpbWl0ZWQxIzAhBgNVBAsMGlNlcnZlciBSZXNlYXJjaCBEZXBh
cnRtZW50MRIwEAYDVQQDDAlsb2NhbGhvc3QxHzAdBgkqhkiG9w0BCQEWEHRlc3RA
ZXhhbXBsZS5jb20wHhcNMTkwMjExMTk1OTU5WhcNMjkwMjA4MTk1OTU5WjBhMQsw
CQYDVQQGEwJVUzELMAkGA1UECAwCTUQxEjAQBgNVBAcMCUJhbHRpbW9yZTEdMBsG
A1UECgwUVGVzdCBTZXJ2ZXIsIExpbWl0ZWQxEjAQBgNVBAMMCWxvY2FsaG9zdDCC
ASIwDQYJKoZIhvcNAQEBBQADggEPADCCAQoCggEBAK/uviOCRAsxSPMTkFB9fRGd
q6fy6CZzKAMkUav/nNtbKjzyzFwgKaD//JBTEWCDNB+LRlE/wDAs1NPMBv+fXoEs
S0YWIa71bhBu3uM7oUIMjVUoxxoRLaRNIJtcoR4KZgQWOXzxpKwh+HYXkTUTKzQ5
bW6Fp2uygf4wK9fsJ4ZDQ+Yz5aZmYumeuLaIe2WynW9IBYZIetQATzvo4wS/zVAT
9crCBMmfw/8ja/h32nv9uJlqsDqH7Q0e/75J9IndNDyWXn+szNMqvczFk3YI1H8M
Zrx79O1uwm/Uze+E9daUDZOz3GHpdFARr34UGqcYPuhkasNXP9ruRhIXJ6xtJusC
AwEAAaOB7TCB6jAdBgNVHQ4EFgQUjUAEDOi+R22zoQQQsXx5Ydu8ftgwHwYDVR0j
BBgwFoAU+nzv56caBJnoq/hquU+mPrHytMowCQYDVR0TBAIwADALBgNVHQ8EBAMC
BaAwYgYDVR0RBFswWYILZXhhbXBsZS5jb22CD3d3dy5leGFtcGxlLmNvbYIQbWFp
bC5leGFtcGxlLmNvbYIPZnRwLmV4YW1wbGUuY29thwR/AAABhxAAAAAAAAAAAAAA
AAAAAAABMCwGCWCGSAGG+EIBDQQfFh1PcGVuU1NMIEdlbmVyYXRlZCBDZXJ0aWZp
Y2F0ZTANBgkqhkiG9w0BAQsFAAOCAgEAiwvzAvqQ2cp5u+uWPSodQNlCfDBg/El6
nbuPHwLVDjQMYv815HSe1uGhWzUHBjFXAyOpgSuwD0YQjHmHxXcpNjQhkcWbcEKw
ttdFuvGX6dpYwH48UqRPdVAjInmR+9P4yW0gmCNzulXUWbZqJjMO5puz8xYlkVRh
FbTUopZRGXZZlrStIQlblAK82CPGdCf7kXxFM3lS4s06xGOUABYRsUV9OKA348Ce
/VFc+xIIJlvErbPK3t8Ec1Ji08S7mmUI3ZKq/HAL7uSC0igRcSPSYEqepBiFuO2W
6DRM0CCFT06WUUzwmtAZWeycXrDWFi2su7aBDx6EUB96iZqP1uk6fw95m+1SZlZa
XU8UivhkVScmv0hjvql+eLyJeh5fRHail8A+K+rzbLjGtsi+lezNGSg1I4obz3aF
YqH4MhDgxHQlPLRPPw6bw41f4cyu3qq+WPRHeyqCIduNGyF2FIb1nyk9sFsHHaBY
+gEp9k7ZSAASq+3cwdY5tuCrNzwOA42KFioGPIq4wrbZCObqcWFnxJ7ieoIJJ4kH
WwJgCnA49NLqY0qpvsh20gTIbpna1ABTkhCPVVTU1e3Ad9xOCA17G9s1fUerkWm5
wGnL0fITByg9d5821Pyem6paWSep4v+ia9QOPK7iNSyvjr30iF1GT6/lsp7/MvzS
tH0ue9zWMy0=
-----END CERTIFICATE-----
